target datalayout = "e-m:e-p270:32:32-p271:32:32-p272:64:64-i64:64-i128:128-f80:128-n8:16:32:64-S128"
target triple = "x86_64-pc-linux-gnu"

%struct.Map_NodeStruct_t_ = type { ptr, ptr, i32, i32, i32, i32, [3 x i32], [3 x float], float, ptr, ptr, ptr, ptr, [2 x %struct.Map_TimeStruct_t_], [2 x %struct.Map_TimeStruct_t_], [2 x ptr], ptr, ptr, ptr }
%struct.Map_TimeStruct_t_ = type { float, float, float }

; Function Attrs: nounwind uwtable
define void @Map_NodeSetChoice(ptr noundef %0, ptr noundef %1, ptr noundef %2) #0 {
  %4 = alloca ptr, align 8
  %5 = alloca ptr, align 8
  %6 = alloca ptr, align 8
  store ptr %0, ptr %4, align 8, !tbaa !3
  store ptr %1, ptr %5, align 8, !tbaa !29
  store ptr %2, ptr %6, align 8, !tbaa !29
  %7 = load ptr, ptr %5, align 8, !tbaa !29
  %8 = getelementptr inbounds nuw %struct.Map_NodeStruct_t_, ptr %7, i32 0, i32 11
  %9 = load ptr, ptr %8, align 8, !tbaa !72
  %10 = load ptr, ptr %6, align 8, !tbaa !29
  %11 = getelementptr inbounds nuw %struct.Map_NodeStruct_t_, ptr %10, i32 0, i32 11
  store ptr %9, ptr %11, align 8, !tbaa !72
  %12 = load ptr, ptr %6, align 8, !tbaa !29
  %13 = load ptr, ptr %5, align 8, !tbaa !29
  %14 = getelementptr inbounds nuw %struct.Map_NodeStruct_t_, ptr %13, i32 0, i32 11
  store ptr %12, ptr %14, align 8, !tbaa !72
  %15 = load ptr, ptr %5, align 8, !tbaa !29
  %16 = load ptr, ptr %6, align 8, !tbaa !29
  %17 = getelementptr inbounds nuw %struct.Map_NodeStruct_t_, ptr %16, i32 0, i32 12
  store ptr %15, ptr %17, align 8, !tbaa !73
  ret void
}